target datalayout = "e-m:e-p270:32:32-p271:32:32-p272:64:64-i64:64-i128:128-f80:128-n8:16:32:64-S128"
target triple = "x86_64-pc-linux-gnu"

%struct.Vmem = type { ptr, i64, i64 }
%struct.BEValue = type { i8, i32, ptr, ptr, ptr }
%struct.GenContext_ = type { i8, ptr, ptr, ptr, ptr, ptr, ptr, ptr, ptr, ptr, ptr, ptr, ptr, ptr, ptr, ptr, ptr, ptr, ptr, ptr, ptr, ptr, ptr, ptr, ptr, ptr, ptr, ptr, ptr, ptr, ptr, ptr, ptr, %struct.anon.85, i32, i32, %struct.DebugContext, ptr, ptr, ptr, %struct.BEValue, i8, %union.SourceSpan, ptr, ptr, ptr, ptr }
%struct.anon.85 = type { ptr, ptr, ptr }
%struct.DebugContext = type { i16, ptr, ptr, %struct.DebugFile_, ptr, ptr, ptr, ptr }
%struct.DebugFile_ = type { i16, ptr }
%union.SourceSpan = type { i64 }
%struct.Expr_ = type { ptr, %union.SourceSpan, i16, %union.anon.29 }
%union.anon.29 = type { %struct.ExprAnySwitch }
%struct.ExprAnySwitch = type { i8, %union.anon.31 }
%union.anon.31 = type { %struct.anon.32 }
%struct.anon.32 = type { ptr, %union.SourceSpan, ptr }
%struct.Type_ = type { i32, ptr, ptr, ptr, %union.anon.97, ptr, ptr, %union.anon.99 }
%union.anon.97 = type { ptr }
%union.anon.99 = type { %struct.TypeFunction }
%struct.TypeFunction = type { ptr, ptr, ptr }
%struct.TypeArray = type { ptr, i32 }
%struct.ExprSubscript = type { i32, %struct.Range }
%struct.Range = type { i8, i32, i32 }

@.str.3 = private unnamed_addr constant [1 x i8] zeroinitializer, align 1
@expr_arena = external global %struct.Vmem, align 8

; Function Attrs: nounwind uwtable
define internal ptr @exprptr(i32 noundef %0) #0 {
  %2 = alloca i32, align 4
  store i32 %0, ptr %2, align 4
  %3 = load ptr, ptr @expr_arena, align 8
  %4 = load i32, ptr %2, align 4
  %5 = zext i32 %4 to i64
  %6 = getelementptr inbounds %struct.Expr_, ptr %3, i64 %5
  ret ptr %6
}

; Function Attrs: nounwind uwtable
define internal void @llvm_emit_pre_post_inc_dec_vector(ptr noundef %0, ptr noundef %1, ptr noundef %2, i32 noundef %3, i1 noundef zeroext %4) #0 {
  %6 = alloca ptr, align 8
  %7 = alloca i32, align 4
  %8 = alloca ptr, align 8
  %9 = alloca ptr, align 8
  %10 = alloca ptr, align 8
  %11 = alloca ptr, align 8
  %12 = alloca ptr, align 8
  %13 = alloca i64, align 8
  %14 = alloca ptr, align 8
  %15 = alloca ptr, align 8
  %16 = alloca i32, align 4
  %17 = alloca ptr, align 8
  %18 = alloca ptr, align 8
  %19 = alloca i32, align 4
  %20 = alloca ptr, align 8
  %21 = alloca ptr, align 8
  %22 = alloca ptr, align 8
  %23 = alloca i32, align 4
  %24 = alloca i8, align 1
  %25 = alloca %struct.BEValue, align 8
  %26 = alloca ptr, align 8
  %27 = alloca ptr, align 8
  %28 = alloca ptr, align 8
  %29 = alloca ptr, align 8
  %30 = alloca %struct.BEValue, align 8
  %31 = alloca ptr, align 8
  store ptr %0, ptr %20, align 8
  store ptr %1, ptr %21, align 8
  store ptr %2, ptr %22, align 8
  store i32 %3, ptr %23, align 4
  %32 = zext i1 %4 to i8
  store i8 %32, ptr %24, align 1
  %33 = load ptr, ptr %20, align 8
  %34 = load ptr, ptr %22, align 8
  %35 = getelementptr inbounds %struct.Expr_, ptr %34, i32 0, i32 3
  %36 = getelementptr inbounds %struct.ExprSubscript, ptr %35, i32 0, i32 0
  %37 = load i32, ptr %36, align 8
  store ptr %33, ptr %14, align 8
  store ptr %25, ptr %15, align 8
  store i32 %37, ptr %16, align 4
  %38 = load ptr, ptr %14, align 8
  %39 = load ptr, ptr %15, align 8
  %40 = load i32, ptr %16, align 4
  %41 = call ptr @exprptr(i32 noundef %40)
  call void @llvm_emit_expr(ptr noundef %38, ptr noundef %39, ptr noundef %41)
  %42 = load ptr, ptr %21, align 8
  call void @llvm.memcpy.p0.p0.i64(ptr align 8 %42, ptr align 8 %25, i64 32, i1 false)
  %43 = load ptr, ptr %20, align 8
  call void @llvm_value_addr(ptr noundef %43, ptr noundef %25)
  %44 = load ptr, ptr %20, align 8
  %45 = load ptr, ptr %21, align 8
  call void @llvm_value_rvalue(ptr noundef %44, ptr noundef %45)
  %46 = load ptr, ptr %21, align 8
  %47 = getelementptr inbounds %struct.BEValue, ptr %46, i32 0, i32 2
  %48 = load ptr, ptr %47, align 8
  store ptr %48, ptr %26, align 8
  %49 = load ptr, ptr %26, align 8
  %50 = getelementptr inbounds %struct.Type_, ptr %49, i32 0, i32 7
  %51 = getelementptr inbounds %struct.TypeArray, ptr %50, i32 0, i32 0
  %52 = load ptr, ptr %51, align 8
  store ptr %52, ptr %27, align 8
  %53 = load ptr, ptr %21, align 8
  %54 = getelementptr inbounds %struct.BEValue, ptr %53, i32 0, i32 3
  %55 = load ptr, ptr %54, align 8
  store ptr %55, ptr %28, align 8
  %56 = load ptr, ptr %20, align 8
  %57 = load ptr, ptr %21, align 8
  %58 = load ptr, ptr %22, align 8
  %59 = getelementptr inbounds %struct.Expr_, ptr %58, i32 0, i32 3
  %60 = getelementptr inbounds %struct.ExprSubscript, ptr %59, i32 0, i32 1
  %61 = getelementptr inbounds %struct.Range, ptr %60, i32 0, i32 1
  %62 = load i32, ptr %61, align 4
  store ptr %56, ptr %17, align 8
  store ptr %57, ptr %18, align 8
  store i32 %62, ptr %19, align 4
  %63 = load ptr, ptr %17, align 8
  %64 = load ptr, ptr %18, align 8
  %65 = load i32, ptr %19, align 4
  %66 = call ptr @exprptr(i32 noundef %65)
  call void @llvm_emit_expr(ptr noundef %63, ptr noundef %64, ptr noundef %66)
  %67 = load ptr, ptr %20, align 8
  %68 = load ptr, ptr %21, align 8
  call void @llvm_value_rvalue(ptr noundef %67, ptr noundef %68)
  %69 = load ptr, ptr %21, align 8
  %70 = getelementptr inbounds %struct.BEValue, ptr %69, i32 0, i32 3
  %71 = load ptr, ptr %70, align 8
  store ptr %71, ptr %29, align 8
  %72 = load ptr, ptr %22, align 8
  %73 = getelementptr inbounds %struct.Expr_, ptr %72, i32 0, i32 3
  %74 = getelementptr inbounds %struct.ExprSubscript, ptr %73, i32 0, i32 1
  %75 = load i8, ptr %74, align 4
  %76 = and i8 %75, 1
  %77 = trunc i8 %76 to i1
  br i1 %77, label %78, label %119

78:                                               ; preds = %5
  %79 = load ptr, ptr %20, align 8
  %80 = getelementptr inbounds %struct.GenContext_, ptr %79, i32 0, i32 8
  %81 = load ptr, ptr %80, align 8
  %82 = load ptr, ptr %20, align 8
  %83 = load ptr, ptr %21, align 8
  %84 = getelementptr inbounds %struct.BEValue, ptr %83, i32 0, i32 2
  %85 = load ptr, ptr %84, align 8
  %86 = load ptr, ptr %26, align 8
  %87 = getelementptr inbounds %struct.Type_, ptr %86, i32 0, i32 7
  %88 = getelementptr inbounds %struct.TypeArray, ptr %87, i32 0, i32 1
  %89 = load i32, ptr %88, align 8
  %90 = zext i32 %89 to i64
  store ptr %82, ptr %11, align 8
  store ptr %85, ptr %12, align 8
  store i64 %90, ptr %13, align 8
  %91 = load ptr, ptr %12, align 8
  %92 = call ptr @type_lowering(ptr noundef %91)
  store ptr %92, ptr %12, align 8
  %93 = load ptr, ptr %11, align 8
  %94 = load ptr, ptr %12, align 8
  %95 = call ptr @llvm_get_type(ptr noundef %93, ptr noundef %94) #8
  %96 = load i64, ptr %13, align 8
  %97 = load ptr, ptr %12, align 8
  store ptr %97, ptr %6, align 8
  %98 = load ptr, ptr %6, align 8
  %99 = load i32, ptr %98, align 8
  store i32 %99, ptr %7, align 4
  %100 = load i32, ptr %7, align 4
  %101 = icmp eq i32 %100, 31
  br i1 %101, label %102, label %107

102:                                              ; preds = %78
  %103 = load ptr, ptr %6, align 8
  %104 = getelementptr inbounds %struct.Type_, ptr %103, i32 0, i32 1
  %105 = load ptr, ptr %104, align 8
  %106 = load i32, ptr %105, align 8
  store i32 %106, ptr %7, align 4
  br label %107

107:                                              ; preds = %102, %78
  %108 = load i32, ptr %7, align 4
  %109 = icmp uge i32 %108, 3
  br i1 %109, label %110, label %113

110:                                              ; preds = %107
  %111 = load i32, ptr %7, align 4
  %112 = icmp ule i32 %111, 7
  br label %113

113:                                              ; preds = %110, %107
  %114 = phi i1 [ false, %107 ], [ %112, %110 ]
  %115 = zext i1 %114 to i32
  %116 = call ptr @LLVMConstInt(ptr noundef %95, i64 noundef %96, i32 noundef %115) #8
  %117 = load ptr, ptr %29, align 8
  %118 = call ptr @LLVMBuildNUWSub(ptr noundef %81, ptr noundef %116, ptr noundef %117, ptr noundef @.str.3)
  store ptr %118, ptr %29, align 8
  br label %119

119:                                              ; preds = %113, %5
  %120 = load ptr, ptr %20, align 8
  %121 = getelementptr inbounds %struct.GenContext_, ptr %120, i32 0, i32 8
  %122 = load ptr, ptr %121, align 8
  %123 = load ptr, ptr %28, align 8
  %124 = load ptr, ptr %29, align 8
  %125 = call ptr @LLVMBuildExtractElement(ptr noundef %122, ptr noundef %123, ptr noundef %124, ptr noundef @.str.3)
  %126 = load ptr, ptr %27, align 8
  call void @llvm_value_set(ptr noundef %30, ptr noundef %125, ptr noundef %126)
  %127 = load ptr, ptr %20, align 8
  %128 = load ptr, ptr %22, align 8
  %129 = getelementptr inbounds %struct.Expr_, ptr %128, i32 0, i32 1
  %130 = load i32, ptr %23, align 4
  %131 = getelementptr inbounds %union.SourceSpan, ptr %129, i32 0, i32 0
  %132 = load i64, ptr %131, align 8
  %133 = call ptr @llvm_emit_inc_dec_value(ptr noundef %127, i64 %132, ptr noundef %30, i32 noundef %130)
  store ptr %133, ptr %31, align 8
  %134 = load ptr, ptr %20, align 8
  %135 = getelementptr inbounds %struct.GenContext_, ptr %134, i32 0, i32 8
  %136 = load ptr, ptr %135, align 8
  %137 = load ptr, ptr %28, align 8
  %138 = load ptr, ptr %31, align 8
  %139 = load ptr, ptr %29, align 8
  %140 = call ptr @LLVMBuildInsertElement(ptr noundef %136, ptr noundef %137, ptr noundef %138, ptr noundef %139, ptr noundef @.str.3)
  store ptr %140, ptr %28, align 8
  %141 = load ptr, ptr %20, align 8
  %142 = load ptr, ptr %28, align 8
  store ptr %141, ptr %8, align 8
  store ptr %25, ptr %9, align 8
  store ptr %142, ptr %10, align 8
  %143 = load ptr, ptr %8, align 8
  %144 = load ptr, ptr %9, align 8
  %145 = getelementptr inbounds %struct.BEValue, ptr %144, i32 0, i32 3
  %146 = load ptr, ptr %145, align 8
  %147 = load ptr, ptr %10, align 8
  %148 = load ptr, ptr %9, align 8
  %149 = getelementptr inbounds %struct.BEValue, ptr %148, i32 0, i32 1
  %150 = load i32, ptr %149, align 4
  %151 = call ptr @llvm_store_to_ptr_raw_aligned(ptr noundef %143, ptr noundef %146, ptr noundef %147, i32 noundef %150) #8
  %152 = load ptr, ptr %21, align 8
  %153 = load i8, ptr %24, align 1
  %154 = trunc i8 %153 to i1
  br i1 %154, label %155, label %158

155:                                              ; preds = %119
  %156 = getelementptr inbounds %struct.BEValue, ptr %30, i32 0, i32 3
  %157 = load ptr, ptr %156, align 8
  br label %160

158:                                              ; preds = %119
  %159 = load ptr, ptr %31, align 8
  br label %160

160:                                              ; preds = %158, %155
  %161 = phi ptr [ %157, %155 ], [ %159, %158 ]
  %162 = load ptr, ptr %27, align 8
  call void @llvm_value_set(ptr noundef %152, ptr noundef %161, ptr noundef %162)
  ret void
}