; Function Attrs: nounwind uwtable
define internal fastcc void @llvm_emit_pre_post_inc_dec_vector(ptr noundef %0, ptr noundef %1, ptr nocapture noundef readonly %2, i32 noundef %3, i1 noundef zeroext %4) unnamed_addr #0 {
  %6 = alloca %struct.BEValue, align 8
  %7 = alloca %struct.BEValue, align 8
  %8 = getelementptr inbounds i8, ptr %2, i64 24
  %9 = load i32, ptr %8, align 8
  %10 = load ptr, ptr @expr_arena, align 8
  %11 = zext i32 %9 to i64
  %12 = getelementptr inbounds %struct.Expr_, ptr %10, i64 %11
  call void @llvm_emit_expr(ptr noundef %0, ptr noundef nonnull %6, ptr noundef %12)
  call void @llvm.memcpy.p0.p0.i64(ptr noundef nonnull align 8 dereferenceable(32) %1, ptr noundef nonnull align 8 dereferenceable(32) %6, i64 32, i1 false)
  call void @llvm_value_addr(ptr noundef %0, ptr noundef nonnull %6) #10
  call void @llvm_value_rvalue(ptr noundef %0, ptr noundef %1) #10
  %13 = getelementptr inbounds i8, ptr %1, i64 8
  %14 = load ptr, ptr %13, align 8
  %15 = getelementptr inbounds i8, ptr %14, i64 56
  %16 = load ptr, ptr %15, align 8
  %17 = getelementptr inbounds i8, ptr %1, i64 16
  %18 = load ptr, ptr %17, align 8
  %19 = getelementptr inbounds i8, ptr %2, i64 28
  %20 = getelementptr inbounds i8, ptr %2, i64 32
  %21 = load i32, ptr %20, align 4
  %22 = load ptr, ptr @expr_arena, align 8
  %23 = zext i32 %21 to i64
  %24 = getelementptr inbounds %struct.Expr_, ptr %22, i64 %23
  call void @llvm_emit_expr(ptr noundef %0, ptr noundef %1, ptr noundef %24)
  call void @llvm_value_rvalue(ptr noundef %0, ptr noundef %1) #10
  %25 = load ptr, ptr %17, align 8
  %26 = load i8, ptr %19, align 4
  %27 = trunc i8 %26 to i1
  br i1 %27, label %28, label %49

28:                                               ; preds = %5
  %29 = getelementptr inbounds i8, ptr %0, i64 64
  %30 = load ptr, ptr %29, align 8
  %31 = load ptr, ptr %13, align 8
  %32 = getelementptr inbounds i8, ptr %14, i64 64
  %33 = load i32, ptr %32, align 8
  %34 = zext i32 %33 to i64
  %35 = call fastcc ptr @type_lowering(ptr noundef %31)
  %36 = call ptr @llvm_get_type(ptr noundef %0, ptr noundef %35) #10
  %37 = load i32, ptr %35, align 8
  %38 = icmp eq i32 %37, 31
  br i1 %38, label %39, label %43

39:                                               ; preds = %28
  %40 = getelementptr inbounds i8, ptr %35, i64 8
  %41 = load ptr, ptr %40, align 8
  %42 = load i32, ptr %41, align 8
  br label %43

43:                                               ; preds = %39, %28
  %.0 = phi i32 [ %42, %39 ], [ %37, %28 ]
  %44 = add i32 %.0, -3
  %45 = icmp ult i32 %44, 5
  %46 = zext i1 %45 to i32
  %47 = call ptr @LLVMConstInt(ptr noundef %36, i64 noundef %34, i32 noundef %46) #10
  %48 = call ptr @LLVMBuildNUWSub(ptr noundef %30, ptr noundef %47, ptr noundef %25, ptr noundef nonnull @.str.3) #10
  br label %49

49:                                               ; preds = %43, %5
  %.057 = phi ptr [ %48, %43 ], [ %25, %5 ]
  %50 = getelementptr inbounds i8, ptr %0, i64 64
  %51 = load ptr, ptr %50, align 8
  %52 = call ptr @LLVMBuildExtractElement(ptr noundef %51, ptr noundef %18, ptr noundef %.057, ptr noundef nonnull @.str.3) #10
  call void @llvm_value_set(ptr noundef nonnull %7, ptr noundef %52, ptr noundef %16) #10
  %53 = getelementptr inbounds i8, ptr %2, i64 8
  %54 = load i64, ptr %53, align 8
  %55 = call fastcc ptr @llvm_emit_inc_dec_value(ptr noundef %0, i64 %54, ptr noundef nonnull %7, i32 noundef %3)
  %56 = load ptr, ptr %50, align 8
  %57 = call ptr @LLVMBuildInsertElement(ptr noundef %56, ptr noundef %18, ptr noundef %55, ptr noundef %.057, ptr noundef nonnull @.str.3) #10
  %58 = getelementptr inbounds i8, ptr %6, i64 16
  %59 = load ptr, ptr %58, align 8
  %60 = getelementptr inbounds i8, ptr %6, i64 4
  %61 = load i32, ptr %60, align 4
  %62 = call ptr @llvm_store_to_ptr_raw_aligned(ptr noundef %0, ptr noundef %59, ptr noundef %57, i32 noundef %61) #10
  %63 = getelementptr inbounds i8, ptr %7, i64 16
  %64 = load ptr, ptr %63, align 8
  %65 = select i1 %4, ptr %64, ptr %55
  call void @llvm_value_set(ptr noundef nonnull %1, ptr noundef %65, ptr noundef %16) #10
  ret void
}